target datalayout = "e-m:e-p270:32:32-p271:32:32-p272:64:64-i64:64-i128:128-f80:128-n8:16:32:64-S128"
target triple = "x86_64-pc-linux-gnu"

%struct.AVTextWriterContext = type { ptr, ptr, ptr, ptr }
%struct.BufferWriterContext = type { ptr, ptr }

@.str = private unnamed_addr constant [13 x i8] c"bufferwriter\00", align 1
@avtextwriter_buffer = constant { ptr, i32, [4 x i8], ptr, ptr, ptr, ptr, ptr, ptr } { ptr @bufferwriter_class, i32 16, [4 x i8] zeroinitializer, ptr @.str, ptr null, ptr null, ptr @buffer_w8, ptr @buffer_put_str, ptr @buffer_vprintf }, align 8
@bufferwriter_class = internal constant { ptr, ptr, ptr, i32, i32, i32, i32, ptr, ptr, ptr, ptr, i32, [4 x i8] } { ptr @.str, ptr @bufferwriter_get_name, ptr null, i32 0, i32 0, i32 0, i32 0, ptr null, ptr null, ptr null, ptr null, i32 0, [4 x i8] zeroinitializer }, align 8
@.str.2 = private unnamed_addr constant [3 x i8] c"%c\00", align 1
@.str.3 = private unnamed_addr constant [3 x i8] c"%s\00", align 1

; Function Attrs: nounwind uwtable
define internal void @buffer_w8(ptr noundef %0, i32 noundef %1) #0 {
  %3 = alloca ptr, align 8
  %4 = alloca i32, align 4
  %5 = alloca ptr, align 8
  store ptr %0, ptr %3, align 8, !tbaa !4
  store i32 %1, ptr %4, align 4, !tbaa !9
  call void @llvm.lifetime.start.p0(i64 8, ptr %5) #3
  %6 = load ptr, ptr %3, align 8, !tbaa !4
  %7 = getelementptr inbounds nuw %struct.AVTextWriterContext, ptr %6, i32 0, i32 3
  %8 = load ptr, ptr %7, align 8, !tbaa !11
  store ptr %8, ptr %5, align 8, !tbaa !16
  %9 = load ptr, ptr %5, align 8, !tbaa !16
  %10 = getelementptr inbounds nuw %struct.BufferWriterContext, ptr %9, i32 0, i32 1
  %11 = load ptr, ptr %10, align 8, !tbaa !18
  %12 = load i32, ptr %4, align 4, !tbaa !9
  call void (ptr, ptr, ...) @av_bprintf(ptr noundef %11, ptr noundef @.str.2, i32 noundef %12)
  call void @llvm.lifetime.end.p0(i64 8, ptr %5) #3
  ret void
}

; Function Attrs: nounwind uwtable
define internal void @buffer_put_str(ptr noundef %0, ptr noundef %1) #0 {
  %3 = alloca ptr, align 8
  %4 = alloca ptr, align 8
  %5 = alloca ptr, align 8
  store ptr %0, ptr %3, align 8, !tbaa !4
  store ptr %1, ptr %4, align 8, !tbaa !21
  call void @llvm.lifetime.start.p0(i64 8, ptr %5) #3
  %6 = load ptr, ptr %3, align 8, !tbaa !4
  %7 = getelementptr inbounds nuw %struct.AVTextWriterContext, ptr %6, i32 0, i32 3
  %8 = load ptr, ptr %7, align 8, !tbaa !11
  store ptr %8, ptr %5, align 8, !tbaa !16
  %9 = load ptr, ptr %5, align 8, !tbaa !16
  %10 = getelementptr inbounds nuw %struct.BufferWriterContext, ptr %9, i32 0, i32 1
  %11 = load ptr, ptr %10, align 8, !tbaa !18
  %12 = load ptr, ptr %4, align 8, !tbaa !21
  call void (ptr, ptr, ...) @av_bprintf(ptr noundef %11, ptr noundef @.str.3, ptr noundef %12)
  call void @llvm.lifetime.end.p0(i64 8, ptr %5) #3
  ret void
}

; Function Attrs: nounwind uwtable
define internal void @buffer_vprintf(ptr noundef %0, ptr noundef %1, ptr noundef %2) #0 {
  %4 = alloca ptr, align 8
  %5 = alloca ptr, align 8
  %6 = alloca ptr, align 8
  %7 = alloca ptr, align 8
  store ptr %0, ptr %4, align 8, !tbaa !4
  store ptr %1, ptr %5, align 8, !tbaa !21
  store ptr %2, ptr %6, align 8, !tbaa !22
  call void @llvm.lifetime.start.p0(i64 8, ptr %7) #3
  %8 = load ptr, ptr %4, align 8, !tbaa !4
  %9 = getelementptr inbounds nuw %struct.AVTextWriterContext, ptr %8, i32 0, i32 3
  %10 = load ptr, ptr %9, align 8, !tbaa !11
  store ptr %10, ptr %7, align 8, !tbaa !16
  %11 = load ptr, ptr %7, align 8, !tbaa !16
  %12 = getelementptr inbounds nuw %struct.BufferWriterContext, ptr %11, i32 0, i32 1
  %13 = load ptr, ptr %12, align 8, !tbaa !18
  %14 = load ptr, ptr %5, align 8, !tbaa !21
  %15 = load ptr, ptr %6, align 8, !tbaa !22
  call void @av_vbprintf(ptr noundef %13, ptr noundef %14, ptr noundef %15)
  call void @llvm.lifetime.end.p0(i64 8, ptr %7) #3
  ret void
}

; Function Attrs: nounwind uwtable
define i32 @avtextwriter_create_buffer(ptr noundef %0, ptr noundef %1) #0 {
  %3 = alloca i32, align 4
  %4 = alloca ptr, align 8
  %5 = alloca ptr, align 8
  %6 = alloca ptr, align 8
  %7 = alloca i32, align 4
  %8 = alloca i32, align 4
  store ptr %0, ptr %4, align 8, !tbaa !24
  store ptr %1, ptr %5, align 8, !tbaa !27
  call void @llvm.lifetime.start.p0(i64 8, ptr %6) #3
  call void @llvm.lifetime.start.p0(i64 4, ptr %7) #3
  %9 = load ptr, ptr %4, align 8, !tbaa !24
  %10 = call i32 @avtextwriter_context_open(ptr noundef %9, ptr noundef @avtextwriter_buffer)
  store i32 %10, ptr %7, align 4, !tbaa !9
  %11 = load i32, ptr %7, align 4, !tbaa !9
  %12 = icmp slt i32 %11, 0
  br i1 %12, label %13, label %15

13:                                               ; preds = %2
  %14 = load i32, ptr %7, align 4, !tbaa !9
  store i32 %14, ptr %3, align 4
  store i32 1, ptr %8, align 4
  br label %24

15:                                               ; preds = %2
  %16 = load ptr, ptr %4, align 8, !tbaa !24
  %17 = load ptr, ptr %16, align 8, !tbaa !4
  %18 = getelementptr inbounds nuw %struct.AVTextWriterContext, ptr %17, i32 0, i32 3
  %19 = load ptr, ptr %18, align 8, !tbaa !11
  store ptr %19, ptr %6, align 8, !tbaa !16
  %20 = load ptr, ptr %5, align 8, !tbaa !27
  %21 = load ptr, ptr %6, align 8, !tbaa !16
  %22 = getelementptr inbounds nuw %struct.BufferWriterContext, ptr %21, i32 0, i32 1
  store ptr %20, ptr %22, align 8, !tbaa !18
  %23 = load i32, ptr %7, align 4, !tbaa !9
  store i32 %23, ptr %3, align 4
  store i32 1, ptr %8, align 4
  br label %24

24:                                               ; preds = %15, %13
  call void @llvm.lifetime.end.p0(i64 4, ptr %7) #3
  call void @llvm.lifetime.end.p0(i64 8, ptr %6) #3
  %25 = load i32, ptr %3, align 4
  ret i32 %25
}

; Function Attrs: nocallback nofree nosync nounwind willreturn memory(argmem: readwrite)
declare void @llvm.lifetime.start.p0(i64 immarg, ptr captures(none)) #1

declare i32 @avtextwriter_context_open(ptr noundef, ptr noundef) #2

; Function Attrs: nocallback nofree nosync nounwind willreturn memory(argmem: readwrite)
declare void @llvm.lifetime.end.p0(i64 immarg, ptr captures(none)) #1

; Function Attrs: nounwind uwtable
define internal ptr @bufferwriter_get_name(ptr noundef %0) #0 {
  %2 = alloca ptr, align 8
  store ptr %0, ptr %2, align 8, !tbaa !28
  ret ptr @.str
}

declare void @av_bprintf(ptr noundef, ptr noundef, ...) #2

declare void @av_vbprintf(ptr noundef, ptr noundef, ptr noundef) #2


!llvm.module.flags = !{!0, !1, !2, !3}

!0 = !{i32 1, !"wchar_size", i32 4}
!1 = !{i32 8, !"PIC Level", i32 2}
!2 = !{i32 7, !"uwtable", i32 2}
!3 = !{i32 1, !"override-stack-alignment", i32 16}
!4 = !{!5, !5, i64 0}
!5 = !{!"p1 _ZTS19AVTextWriterContext", !6, i64 0}
!6 = !{!"any pointer", !7, i64 0}
!7 = !{!"omnipotent char", !8, i64 0}
!8 = !{!"Simple C/C++ TBAA"}
!9 = !{!10, !10, i64 0}
!10 = !{!"int", !7, i64 0}
!11 = !{!12, !6, i64 24}
!12 = !{!"AVTextWriterContext", !13, i64 0, !14, i64 8, !15, i64 16, !6, i64 24}
!13 = !{!"p1 _ZTS7AVClass", !6, i64 0}
!14 = !{!"p1 _ZTS12AVTextWriter", !6, i64 0}
!15 = !{!"p1 omnipotent char", !6, i64 0}
!16 = !{!17, !17, i64 0}
!17 = !{!"p1 _ZTS19BufferWriterContext", !6, i64 0}
!18 = !{!19, !20, i64 8}
!19 = !{!"BufferWriterContext", !13, i64 0, !20, i64 8}
!20 = !{!"p1 _ZTS8AVBPrint", !6, i64 0}
!21 = !{!15, !15, i64 0}
!22 = !{!23, !23, i64 0}
!23 = !{!"p1 _ZTS13__va_list_tag", !6, i64 0}
!24 = !{!25, !25, i64 0}
!25 = !{!"p2 _ZTS19AVTextWriterContext", !26, i64 0}
!26 = !{!"any p2 pointer", !6, i64 0}
!27 = !{!20, !20, i64 0}
!28 = !{!6, !6, i64 0}
